target datalayout = "e-m:e-p270:32:32-p271:32:32-p272:64:64-i64:64-i128:128-f80:128-n8:16:32:64-S128"
target triple = "x86_64-pc-linux-gnu"

%struct.ARKodeMemRec = type { ptr, double, ptr, i32, i32, double, double, ptr, i32, double, ptr, i32, i32, ptr, ptr, i32, ptr, ptr, i32, ptr, ptr, ptr, ptr, ptr, ptr, ptr, ptr, ptr, ptr, ptr, ptr, ptr, ptr, ptr, i32, ptr, ptr, i32, ptr, i32, ptr, ptr, ptr, ptr, ptr, ptr, ptr, ptr, ptr, ptr, ptr, ptr, ptr, ptr, ptr, ptr, ptr, ptr, ptr, ptr, ptr, ptr, ptr, ptr, ptr, ptr, i32, ptr, ptr, ptr, ptr, ptr, ptr, ptr, i32, ptr, ptr, ptr, i32, ptr, ptr, ptr, ptr, ptr, ptr, ptr, i32, i32, i32, i32, double, double, double, double, double, double, double, double, double, double, i32, ptr, i64, i32, i32, i32, i32, i64, i64, i32, i64, i64, i64, i64, i64, i64, i64, double, double, double, double, double, i32, double, double, i32, i32, i32, i32, i32, i32, i32, i32, ptr, i32, ptr, ptr, ptr, ptr, i32, i32, i32 }

@.str = private unnamed_addr constant [115 x i8] c"generated/home/dtcxzyw/WorkSpace/Projects/compilers/llvm-opt-benchmark/bench/sundials/sundials/src/arkode/arkode.c\00", align 1
@.str.1 = private unnamed_addr constant [27 x i8] c"arkode_mem = NULL illegal.\00", align 1
@__func__.ark_MRIStepInnerEvolve = private unnamed_addr constant [23 x i8] c"ark_MRIStepInnerEvolve\00", align 1

; Function Attrs: nounwind uwtable
define i32 @ark_MRIStepInnerEvolve(ptr noundef %0, double noundef %1, double noundef %2, ptr noundef %3) #0 {
  %5 = alloca i32, align 4
  %6 = alloca ptr, align 8
  %7 = alloca double, align 8
  %8 = alloca double, align 8
  %9 = alloca ptr, align 8
  %10 = alloca ptr, align 8
  %11 = alloca ptr, align 8
  %12 = alloca double, align 8
  %13 = alloca double, align 8
  %14 = alloca double, align 8
  %15 = alloca ptr, align 8
  %16 = alloca i32, align 4
  %17 = alloca i32, align 4
  %18 = alloca i32, align 4
  store ptr %0, ptr %6, align 8, !tbaa !161
  store double %1, ptr %7, align 8, !tbaa !9
  store double %2, ptr %8, align 8, !tbaa !9
  store ptr %3, ptr %9, align 8, !tbaa !7
  call void @llvm.lifetime.start.p0(i64 8, ptr %10) #10
  call void @llvm.lifetime.start.p0(i64 8, ptr %11) #10
  call void @llvm.lifetime.start.p0(i64 8, ptr %12) #10
  call void @llvm.lifetime.start.p0(i64 8, ptr %13) #10
  call void @llvm.lifetime.start.p0(i64 8, ptr %14) #10
  call void @llvm.lifetime.start.p0(i64 8, ptr %15) #10
  call void @llvm.lifetime.start.p0(i64 4, ptr %16) #10
  call void @llvm.lifetime.start.p0(i64 4, ptr %17) #10
  %19 = load ptr, ptr %6, align 8, !tbaa !161
  %20 = call i32 @MRIStepInnerStepper_GetContent(ptr noundef %19, ptr noundef %10)
  store i32 %20, ptr %17, align 4, !tbaa !38
  %21 = load i32, ptr %17, align 4, !tbaa !38
  %22 = icmp ne i32 %21, 0
  br i1 %22, label %23, label %24

23:                                               ; preds = %4
  store i32 -1, ptr %5, align 4
  store i32 1, ptr %18, align 4
  br label %88

24:                                               ; preds = %4
  %25 = load ptr, ptr %10, align 8, !tbaa !3
  %26 = icmp eq ptr %25, null
  br i1 %26, label %27, label %28

27:                                               ; preds = %24
  call void (ptr, i32, i32, ptr, ptr, ptr, ...) @arkProcessError(ptr noundef null, i32 noundef -21, i32 noundef 3745, ptr noundef @__func__.ark_MRIStepInnerEvolve, ptr noundef @.str, ptr noundef @.str.1)
  store i32 -1, ptr %5, align 4
  store i32 1, ptr %18, align 4
  br label %88

28:                                               ; preds = %24
  %29 = load ptr, ptr %10, align 8, !tbaa !3
  store ptr %29, ptr %11, align 8, !tbaa !11
  %30 = load ptr, ptr %6, align 8, !tbaa !161
  %31 = call i32 @MRIStepInnerStepper_GetForcingData(ptr noundef %30, ptr noundef %13, ptr noundef %14, ptr noundef %15, ptr noundef %16)
  store i32 %31, ptr %17, align 4, !tbaa !38
  %32 = load i32, ptr %17, align 4, !tbaa !38
  %33 = icmp ne i32 %32, 0
  br i1 %33, label %34, label %35

34:                                               ; preds = %28
  store i32 -1, ptr %5, align 4
  store i32 1, ptr %18, align 4
  br label %88

35:                                               ; preds = %28
  %36 = load ptr, ptr %11, align 8, !tbaa !11
  %37 = getelementptr inbounds nuw %struct.ARKodeMemRec, ptr %36, i32 0, i32 71
  %38 = load ptr, ptr %37, align 8, !tbaa !160
  %39 = load ptr, ptr %11, align 8, !tbaa !11
  %40 = load double, ptr %13, align 8, !tbaa !9
  %41 = load double, ptr %14, align 8, !tbaa !9
  %42 = load ptr, ptr %15, align 8, !tbaa !89
  %43 = load i32, ptr %16, align 4, !tbaa !38
  %44 = call i32 %38(ptr noundef %39, double noundef %40, double noundef %41, ptr noundef %42, i32 noundef %43)
  store i32 %44, ptr %17, align 4, !tbaa !38
  %45 = load i32, ptr %17, align 4, !tbaa !38
  %46 = icmp ne i32 %45, 0
  br i1 %46, label %47, label %48

47:                                               ; preds = %35
  store i32 -1, ptr %5, align 4
  store i32 1, ptr %18, align 4
  br label %88

48:                                               ; preds = %35
  %49 = load ptr, ptr %10, align 8, !tbaa !3
  %50 = load double, ptr %8, align 8, !tbaa !9
  %51 = call i32 @ARKodeSetStopTime(ptr noundef %49, double noundef %50)
  store i32 %51, ptr %17, align 4, !tbaa !38
  %52 = load i32, ptr %17, align 4, !tbaa !38
  %53 = icmp ne i32 %52, 0
  br i1 %53, label %54, label %55

54:                                               ; preds = %48
  store i32 -1, ptr %5, align 4
  store i32 1, ptr %18, align 4
  br label %88

55:                                               ; preds = %48
  %56 = load ptr, ptr %10, align 8, !tbaa !3
  %57 = load double, ptr %8, align 8, !tbaa !9
  %58 = load ptr, ptr %9, align 8, !tbaa !7
  %59 = call i32 @ARKodeEvolve(ptr noundef %56, double noundef %57, ptr noundef %58, ptr noundef %12, i32 noundef 1)
  store i32 %59, ptr %17, align 4, !tbaa !38
  %60 = load i32, ptr %17, align 4, !tbaa !38
  %61 = icmp sgt i32 %60, 0
  br i1 %61, label %62, label %63

62:                                               ; preds = %55
  store i32 0, ptr %17, align 4, !tbaa !38
  br label %63

63:                                               ; preds = %62, %55
  %64 = load i32, ptr %17, align 4, !tbaa !38
  %65 = icmp slt i32 %64, 0
  br i1 %65, label %66, label %78

66:                                               ; preds = %63
  %67 = load i32, ptr %17, align 4, !tbaa !38
  %68 = icmp eq i32 %67, -1
  br i1 %68, label %75, label %69

69:                                               ; preds = %66
  %70 = load i32, ptr %17, align 4, !tbaa !38
  %71 = icmp eq i32 %70, -4
  br i1 %71, label %75, label %72

72:                                               ; preds = %69
  %73 = load i32, ptr %17, align 4, !tbaa !38
  %74 = icmp eq i32 %73, -3
  br i1 %74, label %75, label %76

75:                                               ; preds = %72, %69, %66
  store i32 1, ptr %17, align 4, !tbaa !38
  br label %77

76:                                               ; preds = %72
  store i32 -1, ptr %5, align 4
  store i32 1, ptr %18, align 4
  br label %88

77:                                               ; preds = %75
  br label %78

78:                                               ; preds = %77, %63
  %79 = load ptr, ptr %11, align 8, !tbaa !11
  %80 = getelementptr inbounds nuw %struct.ARKodeMemRec, ptr %79, i32 0, i32 71
  %81 = load ptr, ptr %80, align 8, !tbaa !160
  %82 = load ptr, ptr %11, align 8, !tbaa !11
  %83 = call i32 %81(ptr noundef %82, double noundef 0.000000e+00, double noundef 1.000000e+00, ptr noundef null, i32 noundef 0)
  %84 = icmp ne i32 %83, 0
  br i1 %84, label %85, label %86

85:                                               ; preds = %78
  store i32 -1, ptr %5, align 4
  store i32 1, ptr %18, align 4
  br label %88

86:                                               ; preds = %78
  %87 = load i32, ptr %17, align 4, !tbaa !38
  store i32 %87, ptr %5, align 4
  store i32 1, ptr %18, align 4
  br label %88

88:                                               ; preds = %86, %85, %76, %54, %47, %34, %27, %23
  call void @llvm.lifetime.end.p0(i64 4, ptr %17) #10
  call void @llvm.lifetime.end.p0(i64 4, ptr %16) #10
  call void @llvm.lifetime.end.p0(i64 8, ptr %15) #10
  call void @llvm.lifetime.end.p0(i64 8, ptr %14) #10
  call void @llvm.lifetime.end.p0(i64 8, ptr %13) #10
  call void @llvm.lifetime.end.p0(i64 8, ptr %12) #10
  call void @llvm.lifetime.end.p0(i64 8, ptr %11) #10
  call void @llvm.lifetime.end.p0(i64 8, ptr %10) #10
  %89 = load i32, ptr %5, align 4
  ret i32 %89
}