; Function Attrs: nounwind uwtable
define range(i32 -1, 2) i32 @ark_MRIStepInnerEvolve(ptr noundef %0, double %1, double noundef %2, ptr noundef %3) #0 {
  %5 = alloca ptr, align 8
  %6 = alloca double, align 8
  %7 = alloca double, align 8
  %8 = alloca double, align 8
  %9 = alloca ptr, align 8
  %10 = alloca i32, align 4
  call void @llvm.lifetime.start.p0(i64 8, ptr nonnull %5) #16
  call void @llvm.lifetime.start.p0(i64 8, ptr nonnull %6) #16
  call void @llvm.lifetime.start.p0(i64 8, ptr nonnull %7) #16
  call void @llvm.lifetime.start.p0(i64 8, ptr nonnull %8) #16
  call void @llvm.lifetime.start.p0(i64 8, ptr nonnull %9) #16
  call void @llvm.lifetime.start.p0(i64 4, ptr nonnull %10) #16
  %11 = call i32 @MRIStepInnerStepper_GetContent(ptr noundef %0, ptr noundef nonnull %5) #16
  %.not = icmp eq i32 %11, 0
  br i1 %.not, label %12, label %37

12:                                               ; preds = %4
  %13 = load ptr, ptr %5, align 8, !tbaa !157
  %14 = icmp eq ptr %13, null
  br i1 %14, label %15, label %16

15:                                               ; preds = %12
  call void (ptr, i32, i32, ptr, ptr, ptr, ...) @arkProcessError(ptr noundef null, i32 noundef -21, i32 noundef 3745, ptr noundef nonnull @__func__.ark_MRIStepInnerEvolve, ptr noundef nonnull @.str, ptr noundef nonnull @.str.1)
  br label %37

16:                                               ; preds = %12
  %17 = call i32 @MRIStepInnerStepper_GetForcingData(ptr noundef %0, ptr noundef nonnull %7, ptr noundef nonnull %8, ptr noundef nonnull %9, ptr noundef nonnull %10) #16
  %.not24 = icmp eq i32 %17, 0
  br i1 %.not24, label %18, label %37

18:                                               ; preds = %16
  %19 = getelementptr inbounds nuw i8, ptr %13, i64 552
  %20 = load ptr, ptr %19, align 8, !tbaa !162
  %21 = load double, ptr %7, align 8, !tbaa !113
  %22 = load double, ptr %8, align 8, !tbaa !113
  %23 = load ptr, ptr %9, align 8, !tbaa !165
  %24 = load i32, ptr %10, align 4, !tbaa !115
  %25 = call i32 %20(ptr noundef nonnull %13, double noundef %21, double noundef %22, ptr noundef %23, i32 noundef %24) #16
  %.not25 = icmp eq i32 %25, 0
  br i1 %.not25, label %26, label %37

26:                                               ; preds = %18
  %27 = load ptr, ptr %5, align 8, !tbaa !157
  %28 = call i32 @ARKodeSetStopTime(ptr noundef %27, double noundef %2) #16
  %.not26 = icmp eq i32 %28, 0
  br i1 %.not26, label %29, label %37

29:                                               ; preds = %26
  %30 = load ptr, ptr %5, align 8, !tbaa !157
  %31 = call i32 @ARKodeEvolve(ptr noundef %30, double noundef %2, ptr noundef %3, ptr noundef nonnull %6, i32 noundef 1)
  %32 = icmp slt i32 %31, 0
  br i1 %32, label %33, label %34

33:                                               ; preds = %29
  switch i32 %31, label %37 [
    i32 -1, label %34
    i32 -3, label %34
    i32 -4, label %34
  ]

34:                                               ; preds = %33, %33, %33, %29
  %.0 = phi i32 [ 0, %29 ], [ 1, %33 ], [ 1, %33 ], [ 1, %33 ]
  %35 = load ptr, ptr %19, align 8, !tbaa !162
  %36 = call i32 %35(ptr noundef nonnull %13, double noundef 0.000000e+00, double noundef 1.000000e+00, ptr noundef null, i32 noundef 0) #16
  %.not27 = icmp eq i32 %36, 0
  %.0. = select i1 %.not27, i32 %.0, i32 -1
  br label %37

37:                                               ; preds = %34, %33, %26, %18, %16, %4, %15
  %.022 = phi i32 [ -1, %15 ], [ -1, %4 ], [ -1, %16 ], [ -1, %18 ], [ -1, %26 ], [ -1, %33 ], [ %.0., %34 ]
  call void @llvm.lifetime.end.p0(i64 4, ptr nonnull %10) #16
  call void @llvm.lifetime.end.p0(i64 8, ptr nonnull %9) #16
  call void @llvm.lifetime.end.p0(i64 8, ptr nonnull %8) #16
  call void @llvm.lifetime.end.p0(i64 8, ptr nonnull %7) #16
  call void @llvm.lifetime.end.p0(i64 8, ptr nonnull %6) #16
  call void @llvm.lifetime.end.p0(i64 8, ptr nonnull %5) #16
  ret i32 %.022
}